target datalayout = "e-m:e-p270:32:32-p271:32:32-p272:64:64-i64:64-i128:128-f80:128-n8:16:32:64-S128"
target triple = "x86_64-pc-linux-gnu"

%struct._zend_refcounted_h = type { i32, %union.anon.6 }
%union.anon.6 = type { i32 }
%struct._zend_resource = type { %struct._zend_refcounted_h, i64, i32, ptr }

; Function Attrs: nounwind uwtable
define hidden void @php_pdo_pdbh_dtor(ptr noundef %0) #0 {
  %2 = alloca ptr, align 8
  %3 = alloca ptr, align 8
  store ptr %0, ptr %2, align 8, !tbaa !79
  %4 = load ptr, ptr %2, align 8, !tbaa !79
  %5 = getelementptr inbounds nuw %struct._zend_resource, ptr %4, i32 0, i32 3
  %6 = load ptr, ptr %5, align 8, !tbaa !83
  %7 = icmp ne ptr %6, null
  br i1 %7, label %8, label %15

8:                                                ; preds = %1
  call void @llvm.lifetime.start.p0(i64 8, ptr %3) #14
  %9 = load ptr, ptr %2, align 8, !tbaa !79
  %10 = getelementptr inbounds nuw %struct._zend_resource, ptr %9, i32 0, i32 3
  %11 = load ptr, ptr %10, align 8, !tbaa !83
  store ptr %11, ptr %3, align 8, !tbaa !63
  %12 = load ptr, ptr %3, align 8, !tbaa !63
  call void @dbh_free(ptr noundef %12, i1 noundef zeroext true)
  %13 = load ptr, ptr %2, align 8, !tbaa !79
  %14 = getelementptr inbounds nuw %struct._zend_resource, ptr %13, i32 0, i32 3
  store ptr null, ptr %14, align 8, !tbaa !83
  call void @llvm.lifetime.end.p0(i64 8, ptr %3) #14
  br label %15

15:                                               ; preds = %8, %1
  ret void
}