; Function Attrs: nounwind uwtable
define hidden void @php_pdo_pdbh_dtor(ptr noundef captures(none) %0) local_unnamed_addr #0 {
  %2 = getelementptr inbounds nuw i8, ptr %0, i64 24
  %3 = load ptr, ptr %2, align 8, !tbaa !94
  %.not = icmp eq ptr %3, null
  br i1 %.not, label %5, label %4

4:                                                ; preds = %1
  tail call fastcc void @dbh_free(ptr noundef %3, i1 noundef zeroext true)
  store ptr null, ptr %2, align 8, !tbaa !94
  br label %5

5:                                                ; preds = %4, %1
  ret void
}